; Function Attrs: nounwind uwtable
define zeroext range(i8 0, 2) i8 @l_Array_anyMUnsafe_any___at_Lean_Elab_InfoTree_goalsAt_x3f_hasNestedTactic___spec__10(ptr noundef captures(none) %0, ptr noundef captures(none) %1, ptr noundef captures(none) %2, ptr noundef readonly captures(none) %3, i64 noundef %4, i64 noundef %5) local_unnamed_addr #0 {
  %.not29 = icmp eq i64 %4, %5
  br i1 %.not29, label %lean_dec.exit._crit_edge, label %.lr.ph

.lr.ph:                                           ; preds = %6
  %7 = getelementptr inbounds nuw i8, ptr %3, i64 24
  br label %10

8:                                                ; preds = %lean_dec.exit
  %9 = add i64 %.01730, 1
  %.not = icmp eq i64 %9, %5
  br i1 %.not, label %lean_dec.exit._crit_edge, label %10

10:                                               ; preds = %.lr.ph, %8
  %.01730 = phi i64 [ %4, %.lr.ph ], [ %9, %8 ]
  %11 = getelementptr inbounds nuw [0 x ptr], ptr %7, i64 0, i64 %.01730
  %12 = load ptr, ptr %11, align 8, !tbaa !9
  %13 = ptrtoint ptr %12 to i64
  %14 = and i64 %13, 1
  %.not.i22 = icmp eq i64 %14, 0
  br i1 %.not.i22, label %15, label %lean_array_uget.exit

15:                                               ; preds = %10
  %.val.i.i = load i32, ptr %12, align 4, !tbaa !4
  %16 = icmp sgt i32 %.val.i.i, 0
  br i1 %16, label %17, label %19, !prof !15

17:                                               ; preds = %15
  %18 = add nuw i32 %.val.i.i, 1
  store i32 %18, ptr %12, align 4, !tbaa !4
  br label %22

19:                                               ; preds = %15
  %.not.i.i = icmp eq i32 %.val.i.i, 0
  br i1 %.not.i.i, label %22, label %20

20:                                               ; preds = %19
  tail call void @lean_inc_ref_cold(ptr noundef nonnull %12) #7
  br label %22

lean_array_uget.exit:                             ; preds = %10
  %21 = tail call zeroext i8 @l_Lean_Elab_InfoTree_goalsAt_x3f_hasNestedTactic(ptr noundef %0, ptr noundef %1, ptr noundef %2, ptr noundef %12)
  br label %lean_dec.exit

22:                                               ; preds = %17, %19, %20
  %23 = tail call zeroext i8 @l_Lean_Elab_InfoTree_goalsAt_x3f_hasNestedTactic(ptr noundef %0, ptr noundef %1, ptr noundef %2, ptr noundef nonnull %12)
  %24 = load i32, ptr %12, align 4, !tbaa !4
  %25 = icmp sgt i32 %24, 1
  br i1 %25, label %26, label %28, !prof !15

26:                                               ; preds = %22
  %27 = add nsw i32 %24, -1
  store i32 %27, ptr %12, align 4, !tbaa !4
  br label %lean_dec.exit

28:                                               ; preds = %22
  %.not.i = icmp eq i32 %24, 0
  br i1 %.not.i, label %lean_dec.exit, label %29

29:                                               ; preds = %28
  tail call void @lean_dec_ref_cold(ptr noundef nonnull %12) #7
  br label %lean_dec.exit

lean_dec.exit:                                    ; preds = %29, %28, %26, %lean_array_uget.exit
  %30 = phi i8 [ %21, %lean_array_uget.exit ], [ %23, %26 ], [ %23, %28 ], [ %23, %29 ]
  %31 = icmp eq i8 %30, 0
  br i1 %31, label %8, label %lean_dec.exit._crit_edge

lean_dec.exit._crit_edge:                         ; preds = %8, %lean_dec.exit, %6
  %.2.ph = phi i8 [ 0, %6 ], [ 1, %lean_dec.exit ], [ 0, %8 ]
  ret i8 %.2.ph
}